
Hexadecimal

Area                               Addr   Size   Decimal Bytes (Attributes)
--------------------------------   ----   ----   ------- ----- ------------
.  .ABS.                           0000   0000 =      0. bytes (ABS,CON)

      Value  Global
   --------  --------------------------------
     0000    l_BIT_BANK
     0000    l_GSINIT1
     0000    l_GSINIT5
     0000    l_ISEG
     0000    l_OSEG
     0000    l_PSEG
     0000    l_REG_BANK_1
     0000    l_REG_BANK_2
     0000    l_REG_BANK_3
     0000    l_RSEG
     0000    l__CODE
     0000    s_BSEG
     0000    s_DSEG
     0000    s_HOME
     0000    s_PSEG
     0000    s_REG_BANK_0
     0000    s_XSEG
     0000    s__CODE
     0002    l_BSEG_BYTES
     0003    l_GSFINAL
     0003    l_GSINIT0
     0004    l_XINIT
     0004    l_XISEG
     0006    l_HOME
     0006    s_GSINIT0
     0008    l_REG_BANK_0
     0008    s_REG_BANK_1
     0009    s_GSINIT1
     0009    s_GSINIT2
     000A    l_GSINIT2
     000B    l_BSEG
     0010    s_REG_BANK_2
     0013    s_GSINIT3
     0014    l_GSINIT
     0018    s_REG_BANK_3
     0020    s_BSEG_BYTES
     0022    l_GSINIT3
     0022    s_BIT_BANK
     002A    l_GSINIT4
     0035    s_GSINIT4
     004D    s_OSEG
     004D    s_RSEG
     004D    s_SSEG
     005F    s_GSINIT
     005F    s_GSINIT5
     0073    s_GSFINAL
     0076    l_DSEG
     0076    s_CSEG
     0080    _P0
     0080    _P0_0
     0080    s_ISEG
     0081    _P0_1
     0081    _SP
     0082    _DP0L
     0082    _DPL
     0082    _P0_2
     0083    _DP0H
     0083    _DPH
     0083    _P0_3
     0084    _P0_4
     0085    _P0_5
     0086    _P0_6
     0087    _P0_7
     0087    _PCON
     0088    _IT0
     0088    _TCON
     0089    _IE0
     0089    _TMOD
     008A    _IT1
     008A    _TL0
     008B    _IE1
     008B    _TL1
     008C    _TH0
     008C    _TR0
     008D    _TF0
     008D    _TH1
     008E    _AUXR
     008E    _TR1
     008F    _CKCKON0
     008F    _CKCKON1
     008F    _CKCON0
     008F    _TF1
     0090    _CS2
     0090    _P1
     0090    _P1_0
     0091    _CS1
     0091    _P1_1
     0092    _P1_2
     0093    _P1_3
     0093    _RS
     0094    _P1_4
     0094    _SCL
     0095    _P1_5
     0095    _SDA
     0096    _P1_6
     0096    _RST
     0097    _CKRL
     0097    _P1_7
     0098    _RI
     0098    _SCON
     0099    _SBUF
     0099    _SBUF0
     0099    _TI
     009A    _BRL
     009A    _RB8
     009B    _BDRCON
     009B    _TB8
     009C    _KBLS
     009C    _REN
     009D    _KBE
     009D    _SM2
     009E    _KBF
     009E    _SM1
     009F    _SM0
     00A0    _P2
     00A0    _P2_0
     00A0    __XPAGE
     00A1    _P2_1
     00A2    _AUXR1
     00A2    _P2_2
     00A3    _P2_3
     00A4    _P2_4
     00A5    _P2_5
     00A6    _P2_6
     00A6    _WDTRST
     00A7    _P2_7
     00A7    _WDTPRG
     00A8    _EX0
     00A8    _IE
     00A8    _IEN0
     00A9    _ET0
     00A9    _SADDR
     00AA    _EX1
     00AB    _ET1
     00AC    _ES
     00AD    _ET2
     00AE    _EC
     00AF    _EA
     00B0    _P3
     00B0    _P3_0
     00B0    _RXD
     00B0    _RXD0
     00B1    _IEN1
     00B1    _P3_1
     00B1    _TXD
     00B1    _TXD0
     00B2    _INT0
     00B2    _IPL1
     00B2    _P3_2
     00B3    _INT1
     00B3    _IPH1
     00B3    _P3_3
     00B3    l_SSEG
     00B4    _P3_4
     00B4    _T0
     00B5    _P3_5
     00B5    _T1
     00B6    _P3_6
     00B6    _WR
     00B7    _IPH0
     00B7    _P3_7
     00B7    _RD
     00B8    _IP
     00B8    _IPL0
     00B8    _PX0
     00B8    _PX0L
     00B9    _PT0
     00B9    _PT0L
     00B9    _SADEN
     00BA    _PX1
     00BA    _PX1L
     00BB    _PT1
     00BB    _PT1L
     00BC    _PLS
     00BC    _PS
     00BD    _PT2
     00BD    _PT2L
     00BE    _PPCL
     00C0    _P4
     00C0    _P4_0
     00C1    _P4_1
     00C2    _P4_2
     00C3    _P4_3
     00C3    _SPCON
     00C4    _P4_4
     00C4    _SPSTA
     00C5    _P4_5
     00C5    _SPDAT
     00C6    _P4_6
     00C7    _P4_7
     00C8    _CP_RL2
     00C8    _T2CON
     00C8    _T2CON_0
     00C9    _C_T2
     00C9    _T2CON_1
     00C9    _T2MOD
     00CA    _RCAP2L
     00CA    _T2CON_2
     00CA    _TR2
     00CB    _EXEN2
     00CB    _RCAP2H
     00CB    _T2CON_3
     00CC    _T2CON_4
     00CC    _TCLK
     00CC    _TL2
     00CD    _RCLK
     00CD    _T2CON_5
     00CD    _TH2
     00CE    _EXF2
     00CE    _T2CON_6
     00CF    _T2CON_7
     00CF    _TF2
     00D0    _P
     00D0    _PSW
     00D1    _F1
     00D2    _EECON
     00D2    _OV
     00D3    _RS0
     00D4    _RS1
     00D5    _F0
     00D6    _AC
     00D7    _CY
     00D8    _CCF0
     00D8    _CCON
     00D8    _P5
     00D8    _P5_0
     00D9    _CCF1
     00D9    _CMOD
     00D9    _P5_1
     00DA    _CCAPM0
     00DA    _CCF2
     00DA    _P5_2
     00DB    _CCAPM1
     00DB    _CCF3
     00DB    _P5_3
     00DC    _CCAPM2
     00DC    _CCF4
     00DC    _P5_4
     00DD    _CCAPM3
     00DD    _P5_5
     00DE    _CCAPM4
     00DE    _CR
     00DE    _P5_6
     00DF    _CF
     00DF    _P5_7
     00E0    _ACC
     00E9    _CL
     00EA    _CCAP0L
     00EB    _CCAP1L
     00EC    _CCAP2L
     00ED    _CCAP3L
     00EE    _CCAP4L
     00F0    _B
     00F0    _BREG_F0
     00F1    _BREG_F1
     00F2    _BREG_F2
     00F3    _BREG_F3
     00F4    _BREG_F4
     00F5    _BREG_F5
     00F5    _B_5
     00F6    _BREG_F6
     00F6    _B_6
     00F7    _BREG_F7
     00F7    _B_7
     00F9    _CH
     00FA    _CCAP0H
     00FB    _CCAP1H
     00FC    _CCAP2H
     00FD    _CCAP3H
     00FE    _CCAP4H
     0100    l_IRAM
     03D2    l_XSEG
     03D2    s_XISEG
     049B    l_CONST
     4C32    l_CSEG
     4CA8    s_CONST
     5143    s_XINIT
     F000    _LCD_WR
     F100    _LCD_RD

Hexadecimal

Area                               Addr   Size   Decimal Bytes (Attributes)
--------------------------------   ----   ----   ------- ----- ------------
_CODE                              0000   0000 =      0. bytes (REL,CON)

Hexadecimal

Area                               Addr   Size   Decimal Bytes (Attributes)
--------------------------------   ----   ----   ------- ----- ------------
REG_BANK_0                         0000   0008 =      8. bytes (REL,OVR)

Hexadecimal

Area                               Addr   Size   Decimal Bytes (Attributes)
--------------------------------   ----   ----   ------- ----- ------------
REG_BANK_1                         0008   0000 =      0. bytes (REL,OVR)

Hexadecimal

Area                               Addr   Size   Decimal Bytes (Attributes)
--------------------------------   ----   ----   ------- ----- ------------
REG_BANK_2                         0010   0000 =      0. bytes (REL,OVR)

Hexadecimal

Area                               Addr   Size   Decimal Bytes (Attributes)
--------------------------------   ----   ----   ------- ----- ------------
REG_BANK_3                         0018   0000 =      0. bytes (REL,OVR)

Hexadecimal

Area                               Addr   Size   Decimal Bits  (Attributes)
--------------------------------   ----   ----   ------- ----- ------------
BSEG                               0000   000B =     11. bits  (REL,CON,BIT)

Hexadecimal

Area                               Addr   Size   Decimal Bytes (Attributes)
--------------------------------   ----   ----   ------- ----- ------------
BSEG_BYTES                         0020   0002 =      2. bytes (REL,CON)

Hexadecimal

Area                               Addr   Size   Decimal Bytes (Attributes)
--------------------------------   ----   ----   ------- ----- ------------
BIT_BANK                           0022   0000 =      0. bytes (REL,OVR)

Hexadecimal

Area                               Addr   Size   Decimal Bytes (Attributes)
--------------------------------   ----   ----   ------- ----- ------------
DSEG                               0000   0076 =    118. bytes (REL,CON)

      Value  Global
   --------  --------------------------------
     0010    _bp

Hexadecimal

Area                               Addr   Size   Decimal Bytes (Attributes)
--------------------------------   ----   ----   ------- ----- ------------
OSEG                               004D   0000 =      0. bytes (REL,OVR)

Hexadecimal

Area                               Addr   Size   Decimal Bytes (Attributes)
--------------------------------   ----   ----   ------- ----- ------------
ISEG                               0080   0000 =      0. bytes (REL,CON)

Hexadecimal

Area                               Addr   Size   Decimal Bytes (Attributes)
--------------------------------   ----   ----   ------- ----- ------------
SSEG                               004D   00B3 =    179. bytes (REL,OVR)

      Value  Global
   --------  --------------------------------
     004D    __start__stack

Hexadecimal

Area                               Addr   Size   Decimal Bytes (Attributes)
--------------------------------   ----   ----   ------- ----- ------------
RSEG                               004D   0000 =      0. bytes (REL,CON)

Hexadecimal

Area                               Addr   Size   Decimal Bytes (Attributes)
--------------------------------   ----   ----   ------- ----- ------------
PSEG                               0000   0000 =      0. bytes (REL,CON,PAG,XDATA)

Hexadecimal

Area                               Addr   Size   Decimal Bytes (Attributes)
--------------------------------   ----   ----   ------- ----- ------------
XSEG                               0000   03D2 =    978. bytes (REL,CON,XDATA)

      Value  Global
   --------  --------------------------------
  0D:001F    _ADXL345_error_handle_read_m_PARM_2
  0D:0022    _ADXL345_error_handle_read_m_PARM_3
  0D:0044    _ADXL345_error_handle_write_PARM_2
  0D:0065    _ADXL345_set_bit_PARM_2
  0D:0066    _ADXL345_set_bit_PARM_3
  0D:006A    _ADXL345_getoffset_PARM_2
  0D:006D    _ADXL345_getoffset_PARM_3
  0D:0098    _eebytew_PARM_2
  0D:009D    _accelbytew_PARM_2
  0D:00A2    _accelbyter_m_PARM_2
  0D:00A5    _accelbyter_m_PARM_3
  0D:00AA    _lcd_read_PARM_2
  0D:00AE    _lcd_write_PARM_2
  0D:00AF    _lcd_write_PARM_3
  0D:00B2    _lcd_write_wait_PARM_2
  0D:00B3    _lcd_write_wait_PARM_3
  0D:021A    _GLCD_WriteChar_PARM_2
  0D:021B    _GLCD_WriteChar_PARM_3
  0D:021C    _GLCD_WriteChar_PARM_4
  0D:0220    _GLCD_WriteBrick_PARM_2
  0D:0221    _GLCD_WriteBrick_PARM_3
  0D:0223    _GLCD_WriteBrick_PARM_4
  0D:0229    _GLCD_WriteHeli_PARM_2
  0D:022A    _GLCD_WriteHeli_PARM_3
  0D:022E    _GLCD_WriteString_PARM_2
  0D:022F    _GLCD_WriteString_PARM_3
  0D:0230    _GLCD_WriteString_PARM_4
  0D:0236    _draw_pillar_PARM_2
  0D:0237    _draw_pillar_PARM_3
  0D:0239    _draw_pillar_PARM_4
  0D:023F    _rand_PARM_2
  0D:0245    _heli_page
  0D:0247    _heli_line
  0D:0351    _write_score_PARM_2
  0D:0354    _detect_collision_PARM_2
  0D:0357    _detect_collision_PARM_3
  0D:0359    _detect_collision_PARM_4
  0D:0363    _draw_level_PARM_2
  0D:0366    _draw_level_PARM_3
  0D:0368    _draw_level_PARM_4
  0D:036C    _generate_level_PARM_2
  0D:036F    _generate_level_PARM_3
  0D:0370    _generate_level_PARM_4
  0D:0373    _generate_level_PARM_5
  0D:0387    __uitoa_PARM_2
  0D:038A    __uitoa_PARM_3
  0D:038D    __itoa_PARM_2
  0D:0390    __itoa_PARM_3
  0D:0394    __gptrput_PARM_2
  0D:0395    __moduint_PARM_2
  0D:039A    __divsint_PARM_2
  0D:039E    __divuint_PARM_2
  0D:03A4    _vprintf_PARM_2
  0D:03B8    __print_format_PARM_2
  0D:03BB    __print_format_PARM_3
  0D:03BE    __print_format_PARM_4

Hexadecimal

Area                               Addr   Size   Decimal Bytes (Attributes)
--------------------------------   ----   ----   ------- ----- ------------
XISEG                              03D2   0004 =      4. bytes (REL,CON,XDATA)

      Value  Global
   --------  --------------------------------
  0D:03D2    _cheat_mode
  0D:03D4    _calibrate_mode
  0D:03D5    _calibrate

Hexadecimal

Area                               Addr   Size   Decimal Bytes (Attributes)
--------------------------------   ----   ----   ------- ----- ------------
HOME                               0000   0006 =      6. bytes (REL,CON,CODE)

Hexadecimal

Area                               Addr   Size   Decimal Bytes (Attributes)
--------------------------------   ----   ----   ------- ----- ------------
GSINIT0                            0006   0003 =      3. bytes (REL,CON,CODE)

      Value  Global
   --------  --------------------------------
  0C:0006    __sdcc_gsinit_startup

Hexadecimal

Area                               Addr   Size   Decimal Bytes (Attributes)
--------------------------------   ----   ----   ------- ----- ------------
GSINIT1                            0009   0000 =      0. bytes (REL,CON,CODE)

Hexadecimal

Area                               Addr   Size   Decimal Bytes (Attributes)
--------------------------------   ----   ----   ------- ----- ------------
GSINIT2                            0009   000A =     10. bytes (REL,CON,CODE)

Hexadecimal

Area                               Addr   Size   Decimal Bytes (Attributes)
--------------------------------   ----   ----   ------- ----- ------------
GSINIT3                            0013   0022 =     34. bytes (REL,CON,CODE)

      Value  Global
   --------  --------------------------------
  0C:0013    __mcs51_genXINIT

Hexadecimal

Area                               Addr   Size   Decimal Bytes (Attributes)
--------------------------------   ----   ----   ------- ----- ------------
GSINIT4                            0035   002A =     42. bytes (REL,CON,CODE)

      Value  Global
   --------  --------------------------------
  0C:0035    __mcs51_genRAMCLEAR
  0C:003B    __mcs51_genXRAMCLEAR

Hexadecimal

Area                               Addr   Size   Decimal Bytes (Attributes)
--------------------------------   ----   ----   ------- ----- ------------
GSINIT5                            005F   0000 =      0. bytes (REL,CON,CODE)

Hexadecimal

Area                               Addr   Size   Decimal Bytes (Attributes)
--------------------------------   ----   ----   ------- ----- ------------
GSINIT                             005F   0014 =     20. bytes (REL,CON,CODE)

Hexadecimal

Area                               Addr   Size   Decimal Bytes (Attributes)
--------------------------------   ----   ----   ------- ----- ------------
GSFINAL                            0073   0003 =      3. bytes (REL,CON,CODE)

Hexadecimal

Area                               Addr   Size   Decimal Bytes (Attributes)
--------------------------------   ----   ----   ------- ----- ------------
CSEG                               0076   4C32 =  19506. bytes (REL,CON,CODE)

      Value  Global
   --------  --------------------------------
  0C:0076    _ADXL345_init
  0C:0093    _ADXL345_error_handle_read
  0C:0174    _ADXL345_error_handle_read_m
  0C:027B    _ADXL345_error_handle_write
  0C:0365    _ADXL345_set_bit
  0C:03D3    _ADXL345_getoffset
  0C:045E    _ADXL345_enable_bypass
  0C:046A    _ADXL345_disable_ints
  0C:0475    _format_data
  0C:048A    _ADXL345_set_rate
  0C:049F    _ADXL345_read_x
  0C:0527    _ADXL345_read_y
  0C:05AF    _ADXL345_read_z
  0C:0637    _ADXL345_calibrate
  0C:0970    _start_i2c
  0C:097C    _stop_i2c
  0C:0988    _ack
  0C:0995    _noack
  0C:09A2    _ack_poll
  0C:09B5    _send
  0C:0A1E    _read
  0C:0A73    _eebytew
  0C:0AE8    _eebyter
  0C:0B81    _accelbytew
  0C:0BF9    _accelbyter
  0C:0C92    _accelbyter_m
  0C:0D6A    _i2c_delay
  0C:0D6E    _timer1_init
  0C:0D78    _RS232_init
  0C:0D7E    _lcdinit
  0C:0DDD    _lcd_read
  0C:0E15    _lcd_write
  0C:0E43    _lcd_wait
  0C:0E6D    _lcd_write_wait
  0C:0E9A    _lcd_clear
  0C:0F47    _lcd_clear_invert
  0C:0FF6    _clear_game_screen
  0C:10A3    _still_screen
  0C:1145    _next_level_screen
  0C:13E0    _game_over
  0C:1453    _cheater
  0C:14C6    _creater_screen
  0C:1748    _game_menu
  0C:1A94    _difficulty_menu
  0C:1D86    _draw_banner
  0C:1F83    _accel_screen
  0C:22B9    _GLCD_WriteChar
  0C:24DE    _GLCD_WriteBrick
  0C:264D    _GLCD_WriteHeli
  0C:277B    _GLCD_WriteString
  0C:2848    _draw_pillar
  0C:29FA    _delay_ms
  0C:2A4A    _rand
  0C:2B07    __sdcc_program_startup
  0C:2B0C    __sdcc_external_startup
  0C:2B16    _program_init
  0C:2B4F    _main
  0C:2BA8    _play_game
  0C:2E92    _high_scores
  0C:2F72    _score_update
  0C:301E    _read_score
  0C:30B5    _write_score
  0C:3120    _detect_collision
  0C:34F6    _draw_level
  0C:35F3    _generate_level
  0C:3920    _update_heli
  0C:3D0A    _int0_isr
  0C:3D57    _putchar
  0C:3D69    _getchar
  0C:3D73    _get_user_digit
  0C:3E58    _clear_screen
  0C:3E83    _basic_error
  0C:3ECB    __uitoa
  0C:4009    __itoa
  0C:4085    _isdigit
  0C:40A2    __gptrput
  0C:40BB    _printf_tiny
  0C:41C3    __moduint
  0C:4271    __divsint
  0C:42E9    __divuint
  0C:4391    _vprintf
  0C:43D0    _printf
  0C:44E9    __print_format
  0C:4C1C    _strlen
  0C:4C6F    __gptrget
  0C:4C8B    _islower

Hexadecimal

Area                               Addr   Size   Decimal Bytes (Attributes)
--------------------------------   ----   ----   ------- ----- ------------
CONST                              4CA8   049B =   1179. bytes (REL,CON,CODE)

Hexadecimal

Area                               Addr   Size   Decimal Bytes (Attributes)
--------------------------------   ----   ----   ------- ----- ------------
XINIT                              5143   0004 =      4. bytes (REL,CON,CODE)
ASxxxx Linker V01.70 + NoICE + SDCC Feb 1999,  page 1.

Files Linked      [ module(s) ]

obj\Release\ADXL345.rel
obj\Release\i2c.rel
obj\Release\init.rel
obj\Release\lcd.rel
obj\Release\main.rel
obj\Release\terminal_comm.rel

Libraries Linked            [   object  file   ]

C:\Program Files (x86)\SDCC\bin\..\lib\large/mcs51.lib    [     crtclear.rel ]
C:\Program Files (x86)\SDCC\bin\..\lib\large/libsdcc.lib    [            _itoa ]
C:\Program Files (x86)\SDCC\bin\..\lib\large/mcs51.lib    [     crtxinit.rel ]
C:\Program Files (x86)\SDCC\bin\..\lib\large/libsdcc.lib    [         _isdigit ]
C:\Program Files (x86)\SDCC\bin\..\lib\large/libsdcc.lib    [         _gptrput ]
C:\Program Files (x86)\SDCC\bin\..\lib\large/libsdcc.lib    [      printf_tiny ]
C:\Program Files (x86)\SDCC\bin\..\lib\large/libint.lib    [         _moduint ]
C:\Program Files (x86)\SDCC\bin\..\lib\large/mcs51.lib    [    crtxclear.rel ]
C:\Program Files (x86)\SDCC\bin\..\lib\large/libint.lib    [         _divsint ]
C:\Program Files (x86)\SDCC\bin\..\lib\large/libint.lib    [         _divuint ]
C:\Program Files (x86)\SDCC\bin\..\lib\large/libsdcc.lib    [              _bp ]
C:\Program Files (x86)\SDCC\bin\..\lib\large/libsdcc.lib    [          vprintf ]
C:\Program Files (x86)\SDCC\bin\..\lib\large/libsdcc.lib    [     printf_large ]
C:\Program Files (x86)\SDCC\bin\..\lib\large/mcs51.lib    [   crtpagesfr.rel ]
C:\Program Files (x86)\SDCC\bin\..\lib\large/libsdcc.lib    [          _strlen ]
C:\Program Files (x86)\SDCC\bin\..\lib\large/mcs51.lib    [     crtstart.rel ]
C:\Program Files (x86)\SDCC\bin\..\lib\large/libsdcc.lib    [         _gptrget ]
C:\Program Files (x86)\SDCC\bin\..\lib\large/libsdcc.lib    [         _islower ]

ASxxxx Linker V01.70 + NoICE + SDCC Feb 1999,  page 2.

User Base Address Definitions

HOME = 0x0000
ISEG = 0x0080
BSEG = 0x0000

